target datalayout = "e-m:e-p270:32:32-p271:32:32-p272:64:64-i64:64-i128:128-f80:128-n8:16:32:64-S128"
target triple = "x86_64-pc-linux-gnu"

%struct.cli_matcher = type { i32, ptr, ptr, ptr, ptr, i32, i32, i32, i32, i32, %struct.cli_hash_patt, %struct.cli_hash_wild, i32, i32, i32, i32, i32, ptr, ptr, ptr, ptr, ptr, ptr, i32, i32, i8, i8, ptr, i16, i8, i32, ptr, i32, i32, i32, ptr, ptr, i32, ptr, i64, i64, ptr }
%struct.cli_hash_patt = type { [3 x %struct.cli_htu32] }
%struct.cli_htu32 = type { ptr, i64, i64, i64 }
%struct.cli_hash_wild = type { [3 x %struct.cli_sz_hash] }
%struct.cli_sz_hash = type { ptr, ptr, i32 }
%struct.cli_bcomp_meta = type { i16, [3 x i32], i64, i16, i64, ptr, i32 }
%struct.cli_ac_data = type { ptr, i32, i32, i32, ptr, ptr, ptr, ptr, ptr, ptr, [32 x i32], ptr, i32 }
%struct.cli_ac_result = type { ptr, ptr, i64, ptr }

@.str.21 = private unnamed_addr constant [4 x i8] c"%hu\00", align 1
@.str.22 = private unnamed_addr constant [57 x i8] c"cli_bcomp_scanbuf: can't allocate memory for new result\0A\00", align 1
@.str.23 = private unnamed_addr constant [5 x i8] c"test\00", align 1

; Function Attrs: nounwind uwtable
define i32 @cli_bcomp_scanbuf(ptr noundef %0, i64 noundef %1, ptr noundef %2, ptr noundef %3, ptr noundef %4, ptr noundef %5) #0 {
  %7 = alloca i32, align 4
  %8 = alloca ptr, align 8
  %9 = alloca i64, align 8
  %10 = alloca ptr, align 8
  %11 = alloca ptr, align 8
  %12 = alloca ptr, align 8
  %13 = alloca ptr, align 8
  %14 = alloca i64, align 8
  %15 = alloca i32, align 4
  %16 = alloca i32, align 4
  %17 = alloca i32, align 4
  %18 = alloca i32, align 4
  %19 = alloca i32, align 4
  %20 = alloca i32, align 4
  %21 = alloca ptr, align 8
  %22 = alloca ptr, align 8
  %23 = alloca i32, align 4
  %24 = alloca i64, align 8
  %25 = alloca [3 x i8], align 1
  store ptr %0, ptr %8, align 8
  store i64 %1, ptr %9, align 8
  store ptr %2, ptr %10, align 8
  store ptr %3, ptr %11, align 8
  store ptr %4, ptr %12, align 8
  store ptr %5, ptr %13, align 8
  store i32 0, ptr %15, align 4
  store i32 0, ptr %16, align 4
  store i32 0, ptr %17, align 4
  store i32 0, ptr %20, align 4
  store ptr null, ptr %21, align 8
  store ptr null, ptr %22, align 8
  store i32 0, ptr %23, align 4
  store i64 0, ptr %24, align 8
  %26 = load ptr, ptr %11, align 8
  %27 = icmp ne ptr %26, null
  br i1 %27, label %28, label %49

28:                                               ; preds = %6
  %29 = load ptr, ptr %11, align 8
  %30 = getelementptr inbounds %struct.cli_matcher, ptr %29, i32 0, i32 34
  %31 = load i32, ptr %30, align 8
  %32 = icmp ne i32 %31, 0
  br i1 %32, label %33, label %49

33:                                               ; preds = %28
  %34 = load ptr, ptr %11, align 8
  %35 = getelementptr inbounds %struct.cli_matcher, ptr %34, i32 0, i32 35
  %36 = load ptr, ptr %35, align 8
  %37 = icmp ne ptr %36, null
  br i1 %37, label %38, label %49

38:                                               ; preds = %33
  %39 = load ptr, ptr %12, align 8
  %40 = icmp ne ptr %39, null
  br i1 %40, label %41, label %49

41:                                               ; preds = %38
  %42 = load ptr, ptr %12, align 8
  %43 = getelementptr inbounds %struct.cli_ac_data, ptr %42, i32 0, i32 0
  %44 = load ptr, ptr %43, align 8
  %45 = icmp ne ptr %44, null
  br i1 %45, label %46, label %49

46:                                               ; preds = %41
  %47 = load ptr, ptr %13, align 8
  %48 = icmp ne ptr %47, null
  br i1 %48, label %50, label %49

49:                                               ; preds = %46, %41, %38, %33, %28, %6
  store i32 0, ptr %7, align 4
  br label %194

50:                                               ; preds = %46
  store i64 0, ptr %14, align 8
  br label %51

51:                                               ; preds = %189, %50
  %52 = load i64, ptr %14, align 8
  %53 = load ptr, ptr %11, align 8
  %54 = getelementptr inbounds %struct.cli_matcher, ptr %53, i32 0, i32 34
  %55 = load i32, ptr %54, align 8
  %56 = zext i32 %55 to i64
  %57 = icmp ult i64 %52, %56
  br i1 %57, label %58, label %192

58:                                               ; preds = %51
  %59 = load ptr, ptr %11, align 8
  %60 = getelementptr inbounds %struct.cli_matcher, ptr %59, i32 0, i32 35
  %61 = load ptr, ptr %60, align 8
  %62 = load i64, ptr %14, align 8
  %63 = getelementptr inbounds ptr, ptr %61, i64 %62
  %64 = load ptr, ptr %63, align 8
  store ptr %64, ptr %21, align 8
  %65 = load ptr, ptr %21, align 8
  %66 = getelementptr inbounds %struct.cli_bcomp_meta, ptr %65, i32 0, i32 1
  %67 = getelementptr inbounds [3 x i32], ptr %66, i64 0, i64 1
  %68 = load i32, ptr %67, align 4
  store i32 %68, ptr %18, align 4
  %69 = load ptr, ptr %21, align 8
  %70 = getelementptr inbounds %struct.cli_bcomp_meta, ptr %69, i32 0, i32 0
  %71 = load i16, ptr %70, align 8
  %72 = zext i16 %71 to i32
  store i32 %72, ptr %19, align 4
  %73 = load ptr, ptr %21, align 8
  %74 = getelementptr inbounds %struct.cli_bcomp_meta, ptr %73, i32 0, i32 1
  %75 = getelementptr inbounds [3 x i32], ptr %74, i64 0, i64 0
  %76 = load i32, ptr %75, align 4
  %77 = icmp ne i32 %76, 0
  br i1 %77, label %78, label %127

78:                                               ; preds = %58
  %79 = getelementptr inbounds [3 x i8], ptr %25, i64 0, i64 0
  %80 = load ptr, ptr %21, align 8
  %81 = getelementptr inbounds %struct.cli_bcomp_meta, ptr %80, i32 0, i32 0
  %82 = load i16, ptr %81, align 8
  %83 = zext i16 %82 to i32
  %84 = call i32 (ptr, i64, ptr, ...) @snprintf(ptr noundef %79, i64 noundef 3, ptr noundef @.str.21, i32 noundef %83) #8
  %85 = getelementptr inbounds [3 x i8], ptr %25, i64 0, i64 0
  %86 = getelementptr inbounds [3 x i8], ptr %25, i64 0, i64 0
  %87 = getelementptr inbounds [3 x i8], ptr %25, i64 0, i64 0
  %88 = call i64 @strlen(ptr noundef %87) #9
  %89 = getelementptr inbounds i8, ptr %86, i64 %88
  %90 = load ptr, ptr %12, align 8
  %91 = getelementptr inbounds %struct.cli_ac_data, ptr %90, i32 0, i32 4
  %92 = load ptr, ptr %91, align 8
  %93 = load ptr, ptr %21, align 8
  %94 = getelementptr inbounds %struct.cli_bcomp_meta, ptr %93, i32 0, i32 1
  %95 = getelementptr inbounds [3 x i32], ptr %94, i64 0, i64 1
  %96 = load i32, ptr %95, align 4
  %97 = zext i32 %96 to i64
  %98 = getelementptr inbounds ptr, ptr %92, i64 %97
  %99 = load ptr, ptr %98, align 8
  %100 = call i32 @cli_ac_chklsig(ptr noundef %85, ptr noundef %89, ptr noundef %99, ptr noundef %23, ptr noundef %24, i32 noundef 0)
  store i32 %100, ptr %15, align 4
  %101 = load i32, ptr %15, align 4
  %102 = icmp ne i32 %101, 1
  br i1 %102, label %103, label %104

103:                                              ; preds = %78
  br label %189

104:                                              ; preds = %78
  %105 = load ptr, ptr %12, align 8
  %106 = getelementptr inbounds %struct.cli_ac_data, ptr %105, i32 0, i32 5
  %107 = load ptr, ptr %106, align 8
  %108 = load i32, ptr %18, align 4
  %109 = zext i32 %108 to i64
  %110 = getelementptr inbounds ptr, ptr %107, i64 %109
  %111 = load ptr, ptr %110, align 8
  %112 = icmp ne ptr %111, null
  br i1 %112, label %113, label %125

113:                                              ; preds = %104
  %114 = load ptr, ptr %12, align 8
  %115 = getelementptr inbounds %struct.cli_ac_data, ptr %114, i32 0, i32 5
  %116 = load ptr, ptr %115, align 8
  %117 = load i32, ptr %18, align 4
  %118 = zext i32 %117 to i64
  %119 = getelementptr inbounds ptr, ptr %116, i64 %118
  %120 = load ptr, ptr %119, align 8
  %121 = load i32, ptr %19, align 4
  %122 = zext i32 %121 to i64
  %123 = getelementptr inbounds i32, ptr %120, i64 %122
  %124 = load i32, ptr %123, align 4
  store i32 %124, ptr %20, align 4
  br label %126

125:                                              ; preds = %104
  store i32 0, ptr %16, align 4
  br label %189

126:                                              ; preds = %113
  br label %147

127:                                              ; preds = %58
  %128 = load ptr, ptr %10, align 8
  %129 = icmp ne ptr %128, null
  br i1 %129, label %130, label %146

130:                                              ; preds = %127
  %131 = call noalias ptr @calloc(i64 noundef 1, i64 noundef 32) #11
  store ptr %131, ptr %22, align 8
  %132 = load ptr, ptr %22, align 8
  %133 = icmp ne ptr %132, null
  br i1 %133, label %135, label %134

134:                                              ; preds = %130
  call void (ptr, ...) @cli_errmsg(ptr noundef @.str.22)
  store i32 20, ptr %16, align 4
  br label %192

135:                                              ; preds = %130
  %136 = load ptr, ptr %22, align 8
  %137 = getelementptr inbounds %struct.cli_ac_result, ptr %136, i32 0, i32 0
  store ptr @.str.23, ptr %137, align 8
  %138 = load ptr, ptr %22, align 8
  %139 = getelementptr inbounds %struct.cli_ac_result, ptr %138, i32 0, i32 1
  store ptr null, ptr %139, align 8
  %140 = load ptr, ptr %10, align 8
  %141 = load ptr, ptr %140, align 8
  %142 = load ptr, ptr %22, align 8
  %143 = getelementptr inbounds %struct.cli_ac_result, ptr %142, i32 0, i32 3
  store ptr %141, ptr %143, align 8
  %144 = load ptr, ptr %22, align 8
  %145 = load ptr, ptr %10, align 8
  store ptr %144, ptr %145, align 8
  br label %146

146:                                              ; preds = %135, %127
  br label %147

147:                                              ; preds = %146, %126
  %148 = load i32, ptr %20, align 4
  %149 = icmp eq i32 %148, -2
  br i1 %149, label %150, label %151

150:                                              ; preds = %147
  store i32 0, ptr %20, align 4
  br label %151

151:                                              ; preds = %150, %147
  %152 = load ptr, ptr %8, align 8
  %153 = load i64, ptr %9, align 8
  %154 = load i32, ptr %20, align 4
  %155 = load ptr, ptr %21, align 8
  %156 = call i32 @cli_bcomp_compare_check(ptr noundef %152, i64 noundef %153, i32 noundef %154, ptr noundef %155)
  store i32 %156, ptr %17, align 4
  %157 = load i32, ptr %17, align 4
  %158 = icmp eq i32 1, %157
  br i1 %158, label %159, label %188

159:                                              ; preds = %151
  %160 = load ptr, ptr %21, align 8
  %161 = getelementptr inbounds %struct.cli_bcomp_meta, ptr %160, i32 0, i32 1
  %162 = getelementptr inbounds [3 x i32], ptr %161, i64 0, i64 0
  %163 = load i32, ptr %162, align 4
  %164 = icmp ne i32 %163, 0
  br i1 %164, label %165, label %184

165:                                              ; preds = %159
  %166 = load ptr, ptr %12, align 8
  %167 = getelementptr inbounds %struct.cli_ac_data, ptr %166, i32 0, i32 4
  %168 = load ptr, ptr %167, align 8
  %169 = load ptr, ptr %21, align 8
  %170 = getelementptr inbounds %struct.cli_bcomp_meta, ptr %169, i32 0, i32 1
  %171 = getelementptr inbounds [3 x i32], ptr %170, i64 0, i64 1
  %172 = load i32, ptr %171, align 4
  %173 = zext i32 %172 to i64
  %174 = getelementptr inbounds ptr, ptr %168, i64 %173
  %175 = load ptr, ptr %174, align 8
  %176 = load ptr, ptr %21, align 8
  %177 = getelementptr inbounds %struct.cli_bcomp_meta, ptr %176, i32 0, i32 1
  %178 = getelementptr inbounds [3 x i32], ptr %177, i64 0, i64 2
  %179 = load i32, ptr %178, align 4
  %180 = zext i32 %179 to i64
  %181 = getelementptr inbounds i32, ptr %175, i64 %180
  %182 = load i32, ptr %181, align 4
  %183 = add i32 %182, 1
  store i32 %183, ptr %181, align 4
  br label %187

184:                                              ; preds = %159
  %185 = load ptr, ptr %13, align 8
  %186 = call i32 @cli_append_virus(ptr noundef %185, ptr noundef @.str.23)
  store i32 %186, ptr %16, align 4
  br label %187

187:                                              ; preds = %184, %165
  br label %188

188:                                              ; preds = %187, %151
  br label %189

189:                                              ; preds = %188, %125, %103
  %190 = load i64, ptr %14, align 8
  %191 = add i64 %190, 1
  store i64 %191, ptr %14, align 8
  br label %51

192:                                              ; preds = %134, %51
  %193 = load i32, ptr %16, align 4
  store i32 %193, ptr %7, align 4
  br label %194

194:                                              ; preds = %192, %49
  %195 = load i32, ptr %7, align 4
  ret i32 %195
}