; Function Attrs: nounwind uwtable
define i32 @cli_bcomp_scanbuf(ptr noundef %0, i64 noundef %1, ptr noundef %2, ptr noundef readonly %3, ptr noundef readonly %4, ptr noundef %5) local_unnamed_addr #0 {
  %7 = alloca i32, align 4
  %8 = alloca i64, align 8
  %9 = alloca [3 x i8], align 1
  store i32 0, ptr %7, align 4
  store i64 0, ptr %8, align 8
  %.not = icmp eq ptr %3, null
  br i1 %.not, label %.loopexit, label %10

10:                                               ; preds = %6
  %11 = getelementptr inbounds i8, ptr %3, i64 352
  %12 = load i32, ptr %11, align 8
  %.not57 = icmp eq i32 %12, 0
  br i1 %.not57, label %.loopexit, label %13

13:                                               ; preds = %10
  %14 = getelementptr inbounds i8, ptr %3, i64 360
  %15 = load ptr, ptr %14, align 8
  %16 = icmp ne ptr %15, null
  %17 = icmp ne ptr %4, null
  %or.cond = and i1 %17, %16
  br i1 %or.cond, label %18, label %.loopexit

18:                                               ; preds = %13
  %19 = load ptr, ptr %4, align 8
  %20 = icmp ne ptr %19, null
  %21 = icmp ne ptr %5, null
  %or.cond3 = and i1 %21, %20
  br i1 %or.cond3, label %.lr.ph, label %.loopexit

.lr.ph:                                           ; preds = %18
  %22 = getelementptr inbounds i8, ptr %4, i64 24
  %23 = getelementptr inbounds i8, ptr %4, i64 32
  %.not59 = icmp eq ptr %2, null
  br label %24

24:                                               ; preds = %.lr.ph, %81
  %.067 = phi i32 [ 0, %.lr.ph ], [ %.2, %81 ]
  %.04766 = phi i64 [ 0, %.lr.ph ], [ %82, %81 ]
  %.04865 = phi i32 [ 0, %.lr.ph ], [ %.149, %81 ]
  %25 = load ptr, ptr %14, align 8
  %26 = getelementptr inbounds ptr, ptr %25, i64 %.04766
  %27 = load ptr, ptr %26, align 8
  %28 = getelementptr inbounds i8, ptr %27, i64 4
  %29 = getelementptr inbounds i8, ptr %27, i64 8
  %30 = load i32, ptr %29, align 4
  %31 = load i16, ptr %27, align 8
  %32 = load i32, ptr %28, align 4
  %.not58 = icmp eq i32 %32, 0
  br i1 %.not58, label %53, label %33

33:                                               ; preds = %24
  %34 = zext i16 %31 to i32
  %35 = call i32 (ptr, i64, ptr, ...) @snprintf(ptr noundef nonnull dereferenceable(1) %9, i64 noundef 3, ptr noundef nonnull @.str.21, i32 noundef %34) #14
  %36 = call i64 @strlen(ptr noundef nonnull dereferenceable(1) %9) #15
  %37 = getelementptr inbounds i8, ptr %9, i64 %36
  %38 = load ptr, ptr %22, align 8
  %39 = load i32, ptr %29, align 4
  %40 = zext i32 %39 to i64
  %41 = getelementptr inbounds ptr, ptr %38, i64 %40
  %42 = load ptr, ptr %41, align 8
  %43 = call i32 @cli_ac_chklsig(ptr noundef nonnull %9, ptr noundef nonnull %37, ptr noundef %42, ptr noundef nonnull %7, ptr noundef nonnull %8, i32 noundef 0) #14
  %.not61 = icmp eq i32 %43, 1
  br i1 %.not61, label %44, label %81

44:                                               ; preds = %33
  %45 = load ptr, ptr %23, align 8
  %46 = zext i32 %30 to i64
  %47 = getelementptr inbounds ptr, ptr %45, i64 %46
  %48 = load ptr, ptr %47, align 8
  %.not62 = icmp eq ptr %48, null
  br i1 %.not62, label %81, label %49

49:                                               ; preds = %44
  %50 = zext i16 %31 to i64
  %51 = getelementptr inbounds i32, ptr %48, i64 %50
  %52 = load i32, ptr %51, align 4
  br label %61

53:                                               ; preds = %24
  br i1 %.not59, label %61, label %54

54:                                               ; preds = %53
  %55 = call noalias dereferenceable_or_null(32) ptr @calloc(i64 noundef 1, i64 noundef 32) #17
  %.not60 = icmp eq ptr %55, null
  br i1 %.not60, label %56, label %57

56:                                               ; preds = %54
  call void (ptr, ...) @cli_errmsg(ptr noundef nonnull @.str.22) #14
  br label %.loopexit

57:                                               ; preds = %54
  store ptr @.str.23, ptr %55, align 8
  %58 = getelementptr inbounds i8, ptr %55, i64 8
  store ptr null, ptr %58, align 8
  %59 = load ptr, ptr %2, align 8
  %60 = getelementptr inbounds i8, ptr %55, i64 24
  store ptr %59, ptr %60, align 8
  store ptr %55, ptr %2, align 8
  br label %61

61:                                               ; preds = %53, %57, %49
  %.1 = phi i32 [ %52, %49 ], [ %.067, %57 ], [ %.067, %53 ]
  %62 = icmp eq i32 %.1, -2
  %spec.store.select = select i1 %62, i32 0, i32 %.1
  %63 = call i32 @cli_bcomp_compare_check(ptr noundef %0, i64 noundef %1, i32 noundef %spec.store.select, ptr noundef nonnull %27), !range !4
  %64 = icmp eq i32 %63, 1
  br i1 %64, label %65, label %81

65:                                               ; preds = %61
  %66 = load i32, ptr %28, align 4
  %.not63 = icmp eq i32 %66, 0
  br i1 %.not63, label %79, label %67

67:                                               ; preds = %65
  %68 = load ptr, ptr %22, align 8
  %69 = load i32, ptr %29, align 4
  %70 = zext i32 %69 to i64
  %71 = getelementptr inbounds ptr, ptr %68, i64 %70
  %72 = load ptr, ptr %71, align 8
  %73 = getelementptr inbounds i8, ptr %27, i64 12
  %74 = load i32, ptr %73, align 4
  %75 = zext i32 %74 to i64
  %76 = getelementptr inbounds i32, ptr %72, i64 %75
  %77 = load i32, ptr %76, align 4
  %78 = add i32 %77, 1
  store i32 %78, ptr %76, align 4
  br label %81

79:                                               ; preds = %65
  %80 = call i32 @cli_append_virus(ptr noundef nonnull %5, ptr noundef nonnull @.str.23) #14
  br label %81

81:                                               ; preds = %44, %61, %79, %67, %33
  %.149 = phi i32 [ %.04865, %33 ], [ %.04865, %67 ], [ %80, %79 ], [ %.04865, %61 ], [ 0, %44 ]
  %.2 = phi i32 [ %.067, %33 ], [ %spec.store.select, %67 ], [ %spec.store.select, %79 ], [ %spec.store.select, %61 ], [ %.067, %44 ]
  %82 = add nuw nsw i64 %.04766, 1
  %83 = load i32, ptr %11, align 8
  %84 = zext i32 %83 to i64
  %85 = icmp ult i64 %82, %84
  br i1 %85, label %24, label %.loopexit

.loopexit:                                        ; preds = %81, %56, %6, %10, %13, %18
  %.046 = phi i32 [ 0, %18 ], [ 0, %13 ], [ 0, %10 ], [ 0, %6 ], [ 20, %56 ], [ %.149, %81 ]
  ret i32 %.046
}